; ModuleID = 'source-C-CXX/33/1287.cpp'
source_filename = "source-C-CXX/33/1287.cpp"
target datalayout = "e-m:e-p270:32:32-p271:32:32-p272:64:64-i64:64-f80:128-n8:16:32:64-S128"
target triple = "x86_64-pc-linux-gnu"

%"class.std::ios_base::Init" = type { i8 }
%"class.std::basic_istream" = type { i32 (...)**, i64, %"class.std::basic_ios" }
%"class.std::basic_ios" = type { %"class.std::ios_base", %"class.std::basic_ostream"*, i8, i8, %"class.std::basic_streambuf"*, %"class.std::ctype"*, %"class.std::num_put"*, %"class.std::num_get"* }
%"class.std::ios_base" = type { i32 (...)**, i64, i64, i32, i32, i32, %"struct.std::ios_base::_Callback_list"*, %"struct.std::ios_base::_Words", [8 x %"struct.std::ios_base::_Words"], i32, %"struct.std::ios_base::_Words"*, %"class.std::locale" }
%"struct.std::ios_base::_Callback_list" = type { %"struct.std::ios_base::_Callback_list"*, void (i32, %"class.std::ios_base"*, i32)*, i32, i32 }
%"struct.std::ios_base::_Words" = type { i8*, i64 }
%"class.std::locale" = type { %"class.std::locale::_Impl"* }
%"class.std::locale::_Impl" = type { i32, %"class.std::locale::facet"**, i64, %"class.std::locale::facet"**, i8** }
%"class.std::locale::facet" = type <{ i32 (...)**, i32, [4 x i8] }>
%"class.std::basic_ostream" = type { i32 (...)**, %"class.std::basic_ios" }
%"class.std::basic_streambuf" = type { i32 (...)**, i8*, i8*, i8*, i8*, i8*, i8*, %"class.std::locale" }
%"class.std::ctype" = type <{ %"class.std::locale::facet.base", [4 x i8], %struct.__locale_struct*, i8, [7 x i8], i32*, i32*, i16*, i8, [256 x i8], [256 x i8], i8, [6 x i8] }>
%"class.std::locale::facet.base" = type <{ i32 (...)**, i32 }>
%struct.__locale_struct = type { [13 x %struct.__locale_data*], i16*, i32*, i32*, [13 x i8*] }
%struct.__locale_data = type opaque
%"class.std::num_put" = type { %"class.std::locale::facet.base", [4 x i8] }
%"class.std::num_get" = type { %"class.std::locale::facet.base", [4 x i8] }

@_ZStL8__ioinit = internal global %"class.std::ios_base::Init" zeroinitializer, align 1
@__dso_handle = external hidden global i8
@_ZSt3cin = external global %"class.std::basic_istream", align 8
@_ZSt4cout = external global %"class.std::basic_ostream", align 8
@.str = private unnamed_addr constant [4 x i8] c"End\00", align 1
@.str.1 = private unnamed_addr constant [5 x i8] c"*3+1\00", align 1
@.str.2 = private unnamed_addr constant [2 x i8] c"=\00", align 1
@.str.3 = private unnamed_addr constant [4 x i8] c"/2=\00", align 1
@llvm.global_ctors = appending global [1 x { i32, void ()*, i8* }] [{ i32, void ()*, i8* } { i32 65535, void ()* @_GLOBAL__sub_I_1287.cpp, i8* null }]

declare void @_ZNSt8ios_base4InitC1Ev(%"class.std::ios_base::Init"* nonnull align 1 dereferenceable(1)) unnamed_addr #0

; Function Attrs: nounwind
declare void @_ZNSt8ios_base4InitD1Ev(%"class.std::ios_base::Init"* nonnull align 1 dereferenceable(1)) unnamed_addr #1

; Function Attrs: nofree nounwind
declare i32 @__cxa_atexit(void (i8*)*, i8*, i8*) local_unnamed_addr #2

; Function Attrs: mustprogress norecurse sspstrong uwtable
define dso_local i32 @main() local_unnamed_addr #3 {
  %1 = alloca i32, align 4
  %2 = bitcast i32* %1 to i8*
  call void @llvm.lifetime.start.p0i8(i64 4, i8* nonnull %2) #7
  %3 = call nonnull align 8 dereferenceable(16) %"class.std::basic_istream"* @_ZNSirsERi(%"class.std::basic_istream"* nonnull align 8 dereferenceable(16) @_ZSt3cin, i32* nonnull align 4 dereferenceable(4) %1)
  br label %4

4:                                                ; preds = %0, %83
  %5 = phi i32 [ 0, %0 ], [ %86, %83 ]
  %6 = load i32, i32* %1, align 4, !tbaa !5
  %7 = icmp eq i32 %6, 1
  br i1 %7, label %8, label %10

8:                                                ; preds = %4
  %9 = call nonnull align 8 dereferenceable(8) %"class.std::basic_ostream"* @_ZSt16__ostream_insertIcSt11char_traitsIcEERSt13basic_ostreamIT_T0_ES6_PKS3_l(%"class.std::basic_ostream"* nonnull align 8 dereferenceable(8) @_ZSt4cout, i8* nonnull getelementptr inbounds ([4 x i8], [4 x i8]* @.str, i64 0, i64 0), i64 3)
  br label %88

10:                                               ; preds = %4
  %11 = and i32 %6, 1
  %12 = icmp eq i32 %11, 0
  br i1 %12, label %49, label %13

13:                                               ; preds = %10
  %14 = mul nsw i32 %6, 3
  %15 = add nsw i32 %14, 1
  store i32 %15, i32* %1, align 4, !tbaa !5
  %16 = call nonnull align 8 dereferenceable(8) %"class.std::basic_ostream"* @_ZNSolsEi(%"class.std::basic_ostream"* nonnull align 8 dereferenceable(8) @_ZSt4cout, i32 %6)
  %17 = call nonnull align 8 dereferenceable(8) %"class.std::basic_ostream"* @_ZSt16__ostream_insertIcSt11char_traitsIcEERSt13basic_ostreamIT_T0_ES6_PKS3_l(%"class.std::basic_ostream"* nonnull align 8 dereferenceable(8) %16, i8* nonnull getelementptr inbounds ([5 x i8], [5 x i8]* @.str.1, i64 0, i64 0), i64 4)
  %18 = call nonnull align 8 dereferenceable(8) %"class.std::basic_ostream"* @_ZSt16__ostream_insertIcSt11char_traitsIcEERSt13basic_ostreamIT_T0_ES6_PKS3_l(%"class.std::basic_ostream"* nonnull align 8 dereferenceable(8) %16, i8* nonnull getelementptr inbounds ([2 x i8], [2 x i8]* @.str.2, i64 0, i64 0), i64 1)
  %19 = load i32, i32* %1, align 4, !tbaa !5
  %20 = call nonnull align 8 dereferenceable(8) %"class.std::basic_ostream"* @_ZNSolsEi(%"class.std::basic_ostream"* nonnull align 8 dereferenceable(8) %16, i32 %19)
  %21 = bitcast %"class.std::basic_ostream"* %20 to i8**
  %22 = load i8*, i8** %21, align 8, !tbaa !9
  %23 = getelementptr i8, i8* %22, i64 -24
  %24 = bitcast i8* %23 to i64*
  %25 = load i64, i64* %24, align 8
  %26 = bitcast %"class.std::basic_ostream"* %20 to i8*
  %27 = add nsw i64 %25, 240
  %28 = getelementptr inbounds i8, i8* %26, i64 %27
  %29 = bitcast i8* %28 to %"class.std::ctype"**
  %30 = load %"class.std::ctype"*, %"class.std::ctype"** %29, align 8, !tbaa !11
  %31 = icmp eq %"class.std::ctype"* %30, null
  br i1 %31, label %32, label %33

32:                                               ; preds = %13
  call void @_ZSt16__throw_bad_castv() #8
  unreachable

33:                                               ; preds = %13
  %34 = getelementptr inbounds %"class.std::ctype", %"class.std::ctype"* %30, i64 0, i32 8
  %35 = load i8, i8* %34, align 8, !tbaa !15
  %36 = icmp eq i8 %35, 0
  br i1 %36, label %40, label %37

37:                                               ; preds = %33
  %38 = getelementptr inbounds %"class.std::ctype", %"class.std::ctype"* %30, i64 0, i32 9, i64 10
  %39 = load i8, i8* %38, align 1, !tbaa !17
  br label %46

40:                                               ; preds = %33
  call void @_ZNKSt5ctypeIcE13_M_widen_initEv(%"class.std::ctype"* nonnull align 8 dereferenceable(570) %30)
  %41 = bitcast %"class.std::ctype"* %30 to i8 (%"class.std::ctype"*, i8)***
  %42 = load i8 (%"class.std::ctype"*, i8)**, i8 (%"class.std::ctype"*, i8)*** %41, align 8, !tbaa !9
  %43 = getelementptr inbounds i8 (%"class.std::ctype"*, i8)*, i8 (%"class.std::ctype"*, i8)** %42, i64 6
  %44 = load i8 (%"class.std::ctype"*, i8)*, i8 (%"class.std::ctype"*, i8)** %43, align 8
  %45 = call signext i8 %44(%"class.std::ctype"* nonnull align 8 dereferenceable(570) %30, i8 signext 10)
  br label %46

46:                                               ; preds = %37, %40
  %47 = phi i8 [ %39, %37 ], [ %45, %40 ]
  %48 = call nonnull align 8 dereferenceable(8) %"class.std::basic_ostream"* @_ZNSo3putEc(%"class.std::basic_ostream"* nonnull align 8 dereferenceable(8) %20, i8 signext %47)
  br label %83

49:                                               ; preds = %10
  %50 = sdiv i32 %6, 2
  store i32 %50, i32* %1, align 4, !tbaa !5
  %51 = call nonnull align 8 dereferenceable(8) %"class.std::basic_ostream"* @_ZNSolsEi(%"class.std::basic_ostream"* nonnull align 8 dereferenceable(8) @_ZSt4cout, i32 %6)
  %52 = call nonnull align 8 dereferenceable(8) %"class.std::basic_ostream"* @_ZSt16__ostream_insertIcSt11char_traitsIcEERSt13basic_ostreamIT_T0_ES6_PKS3_l(%"class.std::basic_ostream"* nonnull align 8 dereferenceable(8) %51, i8* nonnull getelementptr inbounds ([4 x i8], [4 x i8]* @.str.3, i64 0, i64 0), i64 3)
  %53 = load i32, i32* %1, align 4, !tbaa !5
  %54 = call nonnull align 8 dereferenceable(8) %"class.std::basic_ostream"* @_ZNSolsEi(%"class.std::basic_ostream"* nonnull align 8 dereferenceable(8) %51, i32 %53)
  %55 = bitcast %"class.std::basic_ostream"* %54 to i8**
  %56 = load i8*, i8** %55, align 8, !tbaa !9
  %57 = getelementptr i8, i8* %56, i64 -24
  %58 = bitcast i8* %57 to i64*
  %59 = load i64, i64* %58, align 8
  %60 = bitcast %"class.std::basic_ostream"* %54 to i8*
  %61 = add nsw i64 %59, 240
  %62 = getelementptr inbounds i8, i8* %60, i64 %61
  %63 = bitcast i8* %62 to %"class.std::ctype"**
  %64 = load %"class.std::ctype"*, %"class.std::ctype"** %63, align 8, !tbaa !11
  %65 = icmp eq %"class.std::ctype"* %64, null
  br i1 %65, label %66, label %67

66:                                               ; preds = %49
  call void @_ZSt16__throw_bad_castv() #8
  unreachable

67:                                               ; preds = %49
  %68 = getelementptr inbounds %"class.std::ctype", %"class.std::ctype"* %64, i64 0, i32 8
  %69 = load i8, i8* %68, align 8, !tbaa !15
  %70 = icmp eq i8 %69, 0
  br i1 %70, label %74, label %71

71:                                               ; preds = %67
  %72 = getelementptr inbounds %"class.std::ctype", %"class.std::ctype"* %64, i64 0, i32 9, i64 10
  %73 = load i8, i8* %72, align 1, !tbaa !17
  br label %80

74:                                               ; preds = %67
  call void @_ZNKSt5ctypeIcE13_M_widen_initEv(%"class.std::ctype"* nonnull align 8 dereferenceable(570) %64)
  %75 = bitcast %"class.std::ctype"* %64 to i8 (%"class.std::ctype"*, i8)***
  %76 = load i8 (%"class.std::ctype"*, i8)**, i8 (%"class.std::ctype"*, i8)*** %75, align 8, !tbaa !9
  %77 = getelementptr inbounds i8 (%"class.std::ctype"*, i8)*, i8 (%"class.std::ctype"*, i8)** %76, i64 6
  %78 = load i8 (%"class.std::ctype"*, i8)*, i8 (%"class.std::ctype"*, i8)** %77, align 8
  %79 = call signext i8 %78(%"class.std::ctype"* nonnull align 8 dereferenceable(570) %64, i8 signext 10)
  br label %80

80:                                               ; preds = %71, %74
  %81 = phi i8 [ %73, %71 ], [ %79, %74 ]
  %82 = call nonnull align 8 dereferenceable(8) %"class.std::basic_ostream"* @_ZNSo3putEc(%"class.std::basic_ostream"* nonnull align 8 dereferenceable(8) %54, i8 signext %81)
  br label %83

83:                                               ; preds = %80, %46
  %84 = phi %"class.std::basic_ostream"* [ %82, %80 ], [ %48, %46 ]
  %85 = call nonnull align 8 dereferenceable(8) %"class.std::basic_ostream"* @_ZNSo5flushEv(%"class.std::basic_ostream"* nonnull align 8 dereferenceable(8) %84)
  %86 = add nuw nsw i32 %5, 1
  %87 = icmp eq i32 %86, 2000
  br i1 %87, label %88, label %4, !llvm.loop !18

88:                                               ; preds = %83, %8
  call void @llvm.lifetime.end.p0i8(i64 4, i8* nonnull %2) #7
  ret i32 0
}

; Function Attrs: argmemonly mustprogress nofree nosync nounwind willreturn
declare void @llvm.lifetime.start.p0i8(i64 immarg, i8* nocapture) #4

declare nonnull align 8 dereferenceable(16) %"class.std::basic_istream"* @_ZNSirsERi(%"class.std::basic_istream"* nonnull align 8 dereferenceable(16), i32* nonnull align 4 dereferenceable(4)) local_unnamed_addr #0

declare nonnull align 8 dereferenceable(8) %"class.std::basic_ostream"* @_ZNSolsEi(%"class.std::basic_ostream"* nonnull align 8 dereferenceable(8), i32) local_unnamed_addr #0

; Function Attrs: argmemonly mustprogress nofree nosync nounwind willreturn
declare void @llvm.lifetime.end.p0i8(i64 immarg, i8* nocapture) #4

declare nonnull align 8 dereferenceable(8) %"class.std::basic_ostream"* @_ZSt16__ostream_insertIcSt11char_traitsIcEERSt13basic_ostreamIT_T0_ES6_PKS3_l(%"class.std::basic_ostream"* nonnull align 8 dereferenceable(8), i8*, i64) local_unnamed_addr #0

declare nonnull align 8 dereferenceable(8) %"class.std::basic_ostream"* @_ZNSo3putEc(%"class.std::basic_ostream"* nonnull align 8 dereferenceable(8), i8 signext) local_unnamed_addr #0

declare nonnull align 8 dereferenceable(8) %"class.std::basic_ostream"* @_ZNSo5flushEv(%"class.std::basic_ostream"* nonnull align 8 dereferenceable(8)) local_unnamed_addr #0

; Function Attrs: noreturn
declare void @_ZSt16__throw_bad_castv() local_unnamed_addr #5

declare void @_ZNKSt5ctypeIcE13_M_widen_initEv(%"class.std::ctype"* nonnull align 8 dereferenceable(570)) local_unnamed_addr #0

; Function Attrs: sspstrong uwtable
define internal void @_GLOBAL__sub_I_1287.cpp() #6 section ".text.startup" {
  tail call void @_ZNSt8ios_base4InitC1Ev(%"class.std::ios_base::Init"* nonnull align 1 dereferenceable(1) @_ZStL8__ioinit)
  %1 = tail call i32 @__cxa_atexit(void (i8*)* bitcast (void (%"class.std::ios_base::Init"*)* @_ZNSt8ios_base4InitD1Ev to void (i8*)*), i8* getelementptr inbounds (%"class.std::ios_base::Init", %"class.std::ios_base::Init"* @_ZStL8__ioinit, i64 0, i32 0), i8* nonnull @__dso_handle) #7
  ret void
}


!llvm.module.flags = !{!0, !1, !2, !3}
!llvm.ident = !{!4}

!0 = !{i32 1, !"wchar_size", i32 4}
!1 = !{i32 7, !"PIC Level", i32 2}
!2 = !{i32 7, !"PIE Level", i32 2}
!3 = !{i32 7, !"uwtable", i32 1}
!4 = !{!"clang version 13.0.0"}
!5 = !{!6, !6, i64 0}
!6 = !{!"int", !7, i64 0}
!7 = !{!"omnipotent char", !8, i64 0}
!8 = !{!"Simple C++ TBAA"}
!9 = !{!10, !10, i64 0}
!10 = !{!"vtable pointer", !8, i64 0}
!11 = !{!12, !13, i64 240}
!12 = !{!"_ZTSSt9basic_iosIcSt11char_traitsIcEE", !13, i64 216, !7, i64 224, !14, i64 225, !13, i64 232, !13, i64 240, !13, i64 248, !13, i64 256}
!13 = !{!"any pointer", !7, i64 0}
!14 = !{!"bool", !7, i64 0}
!15 = !{!16, !7, i64 56}
!16 = !{!"_ZTSSt5ctypeIcE", !13, i64 16, !14, i64 24, !13, i64 32, !13, i64 40, !13, i64 48, !7, i64 56, !7, i64 57, !7, i64 313, !7, i64 569}
!17 = !{!7, !7, i64 0}
!18 = distinct !{!18, !19}
!19 = !{!"llvm.loop.mustprogress"}
